; Function Attrs: mustprogress nounwind willreturn uwtable
define internal noundef i32 @archive_read_format_ar_cleanup(ptr noundef readonly captures(none) %0) #4 {
  %2 = getelementptr inbounds nuw i8, ptr %0, i64 2072
  %3 = load ptr, ptr %2, align 8, !tbaa !4
  %4 = load ptr, ptr %3, align 8, !tbaa !25
  %5 = getelementptr inbounds nuw i8, ptr %4, i64 32
  %6 = load ptr, ptr %5, align 8, !tbaa !36
  tail call void @free(ptr noundef %6) #13
  tail call void @free(ptr noundef %4) #13
  %7 = load ptr, ptr %2, align 8, !tbaa !4
  store ptr null, ptr %7, align 8, !tbaa !25
  ret i32 0
}